; Function Attrs: mustprogress nounwind uwtable
define hidden void @_ZN10JavaThread28popframe_free_preserved_argsEv(ptr nocapture noundef nonnull align 8 dereferenceable(1800) %0) local_unnamed_addr #0 align 2 {
  %2 = getelementptr inbounds i8, ptr %0, i64 1520
  %3 = load ptr, ptr %2, align 8
  tail call void @_Z8FreeHeapPv(ptr noundef %3) #21
  store ptr null, ptr %2, align 8
  %4 = getelementptr inbounds i8, ptr %0, i64 1528
  store i32 0, ptr %4, align 8
  ret void
}